; Function Attrs: nounwind uwtable
define ptr @l_Std_Internal_IO_Async_UDP_Socket_setMembership___boxed(ptr noundef %0, ptr noundef %1, ptr noundef %2, ptr noundef %3, ptr noundef %4) local_unnamed_addr #1 {
  %6 = ptrtoint ptr %3 to i64
  %7 = and i64 %6, 1
  %.not = icmp eq i64 %7, 0
  br i1 %.not, label %8, label %lean_dec.exit12

8:                                                ; preds = %5
  %9 = load i32, ptr %3, align 4, !tbaa !4
  %10 = icmp sgt i32 %9, 1
  br i1 %10, label %11, label %13, !prof !9

11:                                               ; preds = %8
  %12 = add nsw i32 %9, -1
  store i32 %12, ptr %3, align 4, !tbaa !4
  br label %lean_dec.exit12

13:                                               ; preds = %8
  %.not.i = icmp eq i32 %9, 0
  br i1 %.not.i, label %lean_dec.exit12, label %14

14:                                               ; preds = %13
  tail call void @lean_dec_ref_cold(ptr noundef nonnull %3) #6
  br label %lean_dec.exit12

lean_dec.exit12:                                  ; preds = %14, %13, %11, %5
  %15 = and i64 %6, 510
  %16 = icmp ne i64 %15, 0
  %..i = zext i1 %16 to i8
  %17 = tail call ptr @lean_uv_udp_set_membership(ptr noundef %0, ptr noundef %1, ptr noundef %2, i8 noundef zeroext %..i, ptr noundef %4) #6
  %18 = ptrtoint ptr %2 to i64
  %19 = and i64 %18, 1
  %.not19 = icmp eq i64 %19, 0
  br i1 %.not19, label %20, label %lean_dec.exit11

20:                                               ; preds = %lean_dec.exit12
  %21 = load i32, ptr %2, align 4, !tbaa !4
  %22 = icmp sgt i32 %21, 1
  br i1 %22, label %23, label %25, !prof !9

23:                                               ; preds = %20
  %24 = add nsw i32 %21, -1
  store i32 %24, ptr %2, align 4, !tbaa !4
  br label %lean_dec.exit11

25:                                               ; preds = %20
  %.not.i13 = icmp eq i32 %21, 0
  br i1 %.not.i13, label %lean_dec.exit11, label %26

26:                                               ; preds = %25
  tail call void @lean_dec_ref_cold(ptr noundef nonnull %2) #6
  br label %lean_dec.exit11

lean_dec.exit11:                                  ; preds = %26, %25, %23, %lean_dec.exit12
  %27 = ptrtoint ptr %1 to i64
  %28 = and i64 %27, 1
  %.not20 = icmp eq i64 %28, 0
  br i1 %.not20, label %29, label %lean_dec.exit10

29:                                               ; preds = %lean_dec.exit11
  %30 = load i32, ptr %1, align 4, !tbaa !4
  %31 = icmp sgt i32 %30, 1
  br i1 %31, label %32, label %34, !prof !9

32:                                               ; preds = %29
  %33 = add nsw i32 %30, -1
  store i32 %33, ptr %1, align 4, !tbaa !4
  br label %lean_dec.exit10

34:                                               ; preds = %29
  %.not.i15 = icmp eq i32 %30, 0
  br i1 %.not.i15, label %lean_dec.exit10, label %35

35:                                               ; preds = %34
  tail call void @lean_dec_ref_cold(ptr noundef nonnull %1) #6
  br label %lean_dec.exit10

lean_dec.exit10:                                  ; preds = %35, %34, %32, %lean_dec.exit11
  %36 = ptrtoint ptr %0 to i64
  %37 = and i64 %36, 1
  %.not21 = icmp eq i64 %37, 0
  br i1 %.not21, label %38, label %lean_dec.exit

38:                                               ; preds = %lean_dec.exit10
  %39 = load i32, ptr %0, align 4, !tbaa !4
  %40 = icmp sgt i32 %39, 1
  br i1 %40, label %41, label %43, !prof !9

41:                                               ; preds = %38
  %42 = add nsw i32 %39, -1
  store i32 %42, ptr %0, align 4, !tbaa !4
  br label %lean_dec.exit

43:                                               ; preds = %38
  %.not.i17 = icmp eq i32 %39, 0
  br i1 %.not.i17, label %lean_dec.exit, label %44

44:                                               ; preds = %43
  tail call void @lean_dec_ref_cold(ptr noundef nonnull %0) #6
  br label %lean_dec.exit

lean_dec.exit:                                    ; preds = %44, %43, %41, %lean_dec.exit10
  ret ptr %17
}